target datalayout = "e-m:e-p270:32:32-p271:32:32-p272:64:64-i64:64-i128:128-f80:128-n8:16:32:64-S128"
target triple = "x86_64-pc-linux-gnu"

%struct.PJconsts = type { ptr, ptr, ptr, ptr, ptr, ptr, ptr, ptr, ptr, ptr, ptr, ptr, i32, ptr, ptr, ptr, ptr, ptr, ptr, ptr, ptr, double, double, double, double, double, double, double, double, double, double, double, double, double, double, double, double, double, double, double, double, double, double, i32, i32, i32, i32, i32, i32, i32, i32, i32, i32, i32, ptr, ptr, ptr, ptr, ptr, ptr, double, double, double, double, double, double, double, double, double, double, double, i32, [7 x double], i32, ptr, ptr, double, double, i32, [4 x i8], %"class.std::shared_ptr", i8, double, i8, %"class.std::__cxx11::basic_string", %"class.std::__cxx11::basic_string", %"class.std::__cxx11::basic_string", i8, %"class.std::vector", i32, %"class.std::vector.3", i32, i8, i8, i8, ptr }
%"class.std::shared_ptr" = type { %"class.std::__shared_ptr" }
%"class.std::__shared_ptr" = type { ptr, %"class.std::__shared_count" }
%"class.std::__shared_count" = type { ptr }
%"class.std::__cxx11::basic_string" = type { %"struct.std::__cxx11::basic_string<char>::_Alloc_hider", i64, %union.anon }
%"struct.std::__cxx11::basic_string<char>::_Alloc_hider" = type { ptr }
%union.anon = type { i64, [8 x i8] }
%"class.std::vector" = type { %"struct.std::_Vector_base" }
%"struct.std::_Vector_base" = type { %"struct.std::_Vector_base<osgeo::proj::operation::GridDescription, std::allocator<osgeo::proj::operation::GridDescription>>::_Vector_impl" }
%"struct.std::_Vector_base<osgeo::proj::operation::GridDescription, std::allocator<osgeo::proj::operation::GridDescription>>::_Vector_impl" = type { %"struct.std::_Vector_base<osgeo::proj::operation::GridDescription, std::allocator<osgeo::proj::operation::GridDescription>>::_Vector_impl_data" }
%"struct.std::_Vector_base<osgeo::proj::operation::GridDescription, std::allocator<osgeo::proj::operation::GridDescription>>::_Vector_impl_data" = type { ptr, ptr, ptr }
%"class.std::vector.3" = type { %"struct.std::_Vector_base.4" }
%"struct.std::_Vector_base.4" = type { %"struct.std::_Vector_base<PJCoordOperation, std::allocator<PJCoordOperation>>::_Vector_impl" }
%"struct.std::_Vector_base<PJCoordOperation, std::allocator<PJCoordOperation>>::_Vector_impl" = type { %"struct.std::_Vector_base<PJCoordOperation, std::allocator<PJCoordOperation>>::_Vector_impl_data" }
%"struct.std::_Vector_base<PJCoordOperation, std::allocator<PJCoordOperation>>::_Vector_impl_data" = type { ptr, ptr, ptr }
%struct.PJ_LP = type { double, double }
%struct.PJ_XY = type { double, double }

@_ZL10des_nell_h = internal constant [23 x i8] c"Nell-Hammer\0A\09PCyl, Sph\00", align 16
@pj_s_nell_h = hidden constant ptr @_ZL10des_nell_h, align 8
@.str = private unnamed_addr constant [7 x i8] c"nell_h\00", align 1

; Function Attrs: mustprogress uwtable
define hidden ptr @pj_nell_h(ptr noundef %0) #0 {
  %2 = alloca ptr, align 8
  %3 = alloca ptr, align 8
  store ptr %0, ptr %3, align 8, !tbaa !3
  %4 = load ptr, ptr %3, align 8, !tbaa !3
  %5 = icmp ne ptr %4, null
  br i1 %5, label %6, label %9

6:                                                ; preds = %1
  %7 = load ptr, ptr %3, align 8, !tbaa !3
  %8 = call noundef ptr @_Z35pj_projection_specific_setup_nell_hP8PJconsts(ptr noundef %7)
  store ptr %8, ptr %2, align 8
  br label %26

9:                                                ; preds = %1
  %10 = call noundef ptr @_Z6pj_newv()
  store ptr %10, ptr %3, align 8, !tbaa !3
  %11 = load ptr, ptr %3, align 8, !tbaa !3
  %12 = icmp eq ptr null, %11
  br i1 %12, label %13, label %14

13:                                               ; preds = %9
  store ptr null, ptr %2, align 8
  br label %26

14:                                               ; preds = %9
  %15 = load ptr, ptr %3, align 8, !tbaa !3
  %16 = getelementptr inbounds nuw %struct.PJconsts, ptr %15, i32 0, i32 1
  store ptr @.str, ptr %16, align 8, !tbaa !8
  %17 = load ptr, ptr %3, align 8, !tbaa !3
  %18 = getelementptr inbounds nuw %struct.PJconsts, ptr %17, i32 0, i32 2
  store ptr @_ZL10des_nell_h, ptr %18, align 8, !tbaa !37
  %19 = load ptr, ptr %3, align 8, !tbaa !3
  %20 = getelementptr inbounds nuw %struct.PJconsts, ptr %19, i32 0, i32 47
  store i32 1, ptr %20, align 8, !tbaa !38
  %21 = load ptr, ptr %3, align 8, !tbaa !3
  %22 = getelementptr inbounds nuw %struct.PJconsts, ptr %21, i32 0, i32 52
  store i32 4, ptr %22, align 4, !tbaa !39
  %23 = load ptr, ptr %3, align 8, !tbaa !3
  %24 = getelementptr inbounds nuw %struct.PJconsts, ptr %23, i32 0, i32 53
  store i32 1, ptr %24, align 8, !tbaa !40
  %25 = load ptr, ptr %3, align 8, !tbaa !3
  store ptr %25, ptr %2, align 8
  br label %26

26:                                               ; preds = %14, %13, %6
  %27 = load ptr, ptr %2, align 8
  ret ptr %27
}

; Function Attrs: mustprogress nounwind uwtable
define hidden noundef ptr @_Z35pj_projection_specific_setup_nell_hP8PJconsts(ptr noundef %0) #1 {
  %2 = alloca ptr, align 8
  store ptr %0, ptr %2, align 8, !tbaa !3
  %3 = load ptr, ptr %2, align 8, !tbaa !3
  %4 = getelementptr inbounds nuw %struct.PJconsts, ptr %3, i32 0, i32 27
  store double 0.000000e+00, ptr %4, align 8, !tbaa !41
  %5 = load ptr, ptr %2, align 8, !tbaa !3
  %6 = getelementptr inbounds nuw %struct.PJconsts, ptr %5, i32 0, i32 14
  store ptr @_ZL16nell_h_s_inverse5PJ_XYP8PJconsts, ptr %6, align 8, !tbaa !42
  %7 = load ptr, ptr %2, align 8, !tbaa !3
  %8 = getelementptr inbounds nuw %struct.PJconsts, ptr %7, i32 0, i32 13
  store ptr @_ZL16nell_h_s_forward5PJ_LPP8PJconsts, ptr %8, align 8, !tbaa !43
  %9 = load ptr, ptr %2, align 8, !tbaa !3
  ret ptr %9
}

declare noundef ptr @_Z6pj_newv() #2

; Function Attrs: mustprogress nounwind uwtable
define internal { double, double } @_ZL16nell_h_s_inverse5PJ_XYP8PJconsts(double %0, double %1, ptr noundef %2) #1 {
  %4 = alloca %struct.PJ_LP, align 8
  %5 = alloca %struct.PJ_XY, align 8
  %6 = alloca ptr, align 8
  %7 = alloca i32, align 4
  %8 = alloca double, align 8
  %9 = alloca double, align 8
  %10 = alloca double, align 8
  %11 = alloca i32, align 4
  %12 = getelementptr inbounds nuw { double, double }, ptr %5, i32 0, i32 0
  store double %0, ptr %12, align 8
  %13 = getelementptr inbounds nuw { double, double }, ptr %5, i32 0, i32 1
  store double %1, ptr %13, align 8
  store ptr %2, ptr %6, align 8, !tbaa !3
  call void @llvm.memset.p0.i64(ptr align 8 %4, i8 0, i64 16, i1 false)
  call void @llvm.lifetime.start.p0(i64 4, ptr %7) #7
  call void @llvm.lifetime.start.p0(i64 8, ptr %8) #7
  %14 = getelementptr inbounds nuw %struct.PJ_XY, ptr %5, i32 0, i32 1
  %15 = load double, ptr %14, align 8, !tbaa !44
  %16 = fmul double 5.000000e-01, %15
  store double %16, ptr %8, align 8, !tbaa !46
  store i32 9, ptr %7, align 4, !tbaa !47
  br label %17

17:                                               ; preds = %52, %3
  %18 = load i32, ptr %7, align 4, !tbaa !47
  %19 = icmp ne i32 %18, 0
  br i1 %19, label %20, label %55

20:                                               ; preds = %17
  call void @llvm.lifetime.start.p0(i64 8, ptr %9) #7
  %21 = getelementptr inbounds nuw %struct.PJ_LP, ptr %4, i32 0, i32 1
  %22 = load double, ptr %21, align 8, !tbaa !48
  %23 = fmul double 5.000000e-01, %22
  %24 = call double @cos(double noundef %23) #7, !tbaa !47
  store double %24, ptr %9, align 8, !tbaa !46
  call void @llvm.lifetime.start.p0(i64 8, ptr %10) #7
  %25 = getelementptr inbounds nuw %struct.PJ_LP, ptr %4, i32 0, i32 1
  %26 = load double, ptr %25, align 8, !tbaa !48
  %27 = getelementptr inbounds nuw %struct.PJ_LP, ptr %4, i32 0, i32 1
  %28 = load double, ptr %27, align 8, !tbaa !48
  %29 = fdiv double %28, 2.000000e+00
  %30 = call double @tan(double noundef %29) #7, !tbaa !47
  %31 = fsub double %26, %30
  %32 = load double, ptr %8, align 8, !tbaa !46
  %33 = fsub double %31, %32
  %34 = load double, ptr %9, align 8, !tbaa !46
  %35 = load double, ptr %9, align 8, !tbaa !46
  %36 = fmul double %34, %35
  %37 = fdiv double 5.000000e-01, %36
  %38 = fsub double 1.000000e+00, %37
  %39 = fdiv double %33, %38
  store double %39, ptr %10, align 8, !tbaa !46
  %40 = load double, ptr %10, align 8, !tbaa !46
  %41 = getelementptr inbounds nuw %struct.PJ_LP, ptr %4, i32 0, i32 1
  %42 = load double, ptr %41, align 8, !tbaa !48
  %43 = fsub double %42, %40
  store double %43, ptr %41, align 8, !tbaa !48
  %44 = load double, ptr %10, align 8, !tbaa !46
  %45 = call double @llvm.fabs.f64(double %44)
  %46 = fcmp olt double %45, 0x3E7AD7F29ABCAF48
  br i1 %46, label %47, label %48

47:                                               ; preds = %20
  store i32 2, ptr %11, align 4
  br label %49

48:                                               ; preds = %20
  store i32 0, ptr %11, align 4
  br label %49

49:                                               ; preds = %48, %47
  call void @llvm.lifetime.end.p0(i64 8, ptr %10) #7
  call void @llvm.lifetime.end.p0(i64 8, ptr %9) #7
  %50 = load i32, ptr %11, align 4
  switch i32 %50, label %79 [
    i32 0, label %51
    i32 2, label %55
  ]

51:                                               ; preds = %49
  br label %52

52:                                               ; preds = %51
  %53 = load i32, ptr %7, align 4, !tbaa !47
  %54 = add nsw i32 %53, -1
  store i32 %54, ptr %7, align 4, !tbaa !47
  br label %17, !llvm.loop !50

55:                                               ; preds = %49, %17
  %56 = load i32, ptr %7, align 4, !tbaa !47
  %57 = icmp ne i32 %56, 0
  br i1 %57, label %67, label %58

58:                                               ; preds = %55
  %59 = load double, ptr %8, align 8, !tbaa !46
  %60 = fcmp olt double %59, 0.000000e+00
  %61 = select i1 %60, double 0xBFF921FB54442D18, double 0x3FF921FB54442D18
  %62 = getelementptr inbounds nuw %struct.PJ_LP, ptr %4, i32 0, i32 1
  store double %61, ptr %62, align 8, !tbaa !48
  %63 = getelementptr inbounds nuw %struct.PJ_XY, ptr %5, i32 0, i32 0
  %64 = load double, ptr %63, align 8, !tbaa !52
  %65 = fmul double 2.000000e+00, %64
  %66 = getelementptr inbounds nuw %struct.PJ_LP, ptr %4, i32 0, i32 0
  store double %65, ptr %66, align 8, !tbaa !53
  br label %77

67:                                               ; preds = %55
  %68 = getelementptr inbounds nuw %struct.PJ_XY, ptr %5, i32 0, i32 0
  %69 = load double, ptr %68, align 8, !tbaa !52
  %70 = fmul double 2.000000e+00, %69
  %71 = getelementptr inbounds nuw %struct.PJ_LP, ptr %4, i32 0, i32 1
  %72 = load double, ptr %71, align 8, !tbaa !48
  %73 = call double @cos(double noundef %72) #7, !tbaa !47
  %74 = fadd double 1.000000e+00, %73
  %75 = fdiv double %70, %74
  %76 = getelementptr inbounds nuw %struct.PJ_LP, ptr %4, i32 0, i32 0
  store double %75, ptr %76, align 8, !tbaa !53
  br label %77

77:                                               ; preds = %67, %58
  store i32 1, ptr %11, align 4
  call void @llvm.lifetime.end.p0(i64 8, ptr %8) #7
  call void @llvm.lifetime.end.p0(i64 4, ptr %7) #7
  %78 = load { double, double }, ptr %4, align 8
  ret { double, double } %78

79:                                               ; preds = %49
  unreachable
}

; Function Attrs: mustprogress nounwind uwtable
define internal { double, double } @_ZL16nell_h_s_forward5PJ_LPP8PJconsts(double %0, double %1, ptr noundef %2) #1 {
  %4 = alloca %struct.PJ_XY, align 8
  %5 = alloca %struct.PJ_LP, align 8
  %6 = alloca ptr, align 8
  %7 = getelementptr inbounds nuw { double, double }, ptr %5, i32 0, i32 0
  store double %0, ptr %7, align 8
  %8 = getelementptr inbounds nuw { double, double }, ptr %5, i32 0, i32 1
  store double %1, ptr %8, align 8
  store ptr %2, ptr %6, align 8, !tbaa !3
  call void @llvm.memset.p0.i64(ptr align 8 %4, i8 0, i64 16, i1 false)
  %9 = getelementptr inbounds nuw %struct.PJ_LP, ptr %5, i32 0, i32 0
  %10 = load double, ptr %9, align 8, !tbaa !53
  %11 = fmul double 5.000000e-01, %10
  %12 = getelementptr inbounds nuw %struct.PJ_LP, ptr %5, i32 0, i32 1
  %13 = load double, ptr %12, align 8, !tbaa !48
  %14 = call double @cos(double noundef %13) #7, !tbaa !47
  %15 = fadd double 1.000000e+00, %14
  %16 = fmul double %11, %15
  %17 = getelementptr inbounds nuw %struct.PJ_XY, ptr %4, i32 0, i32 0
  store double %16, ptr %17, align 8, !tbaa !52
  %18 = getelementptr inbounds nuw %struct.PJ_LP, ptr %5, i32 0, i32 1
  %19 = load double, ptr %18, align 8, !tbaa !48
  %20 = getelementptr inbounds nuw %struct.PJ_LP, ptr %5, i32 0, i32 1
  %21 = load double, ptr %20, align 8, !tbaa !48
  %22 = fmul double 5.000000e-01, %21
  %23 = call double @tan(double noundef %22) #7, !tbaa !47
  %24 = fsub double %19, %23
  %25 = fmul double 2.000000e+00, %24
  %26 = getelementptr inbounds nuw %struct.PJ_XY, ptr %4, i32 0, i32 1
  store double %25, ptr %26, align 8, !tbaa !44
  %27 = load { double, double }, ptr %4, align 8
  ret { double, double } %27
}

; Function Attrs: nocallback nofree nounwind willreturn memory(argmem: write)
declare void @llvm.memset.p0.i64(ptr writeonly captures(none), i8, i64, i1 immarg) #3

; Function Attrs: nocallback nofree nosync nounwind willreturn memory(argmem: readwrite)
declare void @llvm.lifetime.start.p0(i64 immarg, ptr captures(none)) #4

; Function Attrs: nounwind
declare double @cos(double noundef) #5

; Function Attrs: nounwind
declare double @tan(double noundef) #5

; Function Attrs: nocallback nofree nosync nounwind speculatable willreturn memory(none)
declare double @llvm.fabs.f64(double) #6

; Function Attrs: nocallback nofree nosync nounwind willreturn memory(argmem: readwrite)
declare void @llvm.lifetime.end.p0(i64 immarg, ptr captures(none)) #4


!llvm.module.flags = !{!0, !1, !2}

!0 = !{i32 1, !"wchar_size", i32 4}
!1 = !{i32 8, !"PIC Level", i32 2}
!2 = !{i32 7, !"uwtable", i32 2}
!3 = !{!4, !4, i64 0}
!4 = !{!"p1 _ZTS8PJconsts", !5, i64 0}
!5 = !{!"any pointer", !6, i64 0}
!6 = !{!"omnipotent char", !7, i64 0}
!7 = !{!"Simple C++ TBAA"}
!8 = !{!9, !11, i64 8}
!9 = !{!"_ZTS8PJconsts", !10, i64 0, !11, i64 8, !11, i64 16, !12, i64 24, !11, i64 32, !4, i64 40, !11, i64 48, !11, i64 56, !11, i64 64, !11, i64 72, !13, i64 80, !5, i64 88, !14, i64 96, !5, i64 104, !5, i64 112, !5, i64 120, !5, i64 128, !5, i64 136, !5, i64 144, !5, i64 152, !5, i64 160, !15, i64 168, !15, i64 176, !15, i64 184, !15, i64 192, !15, i64 200, !15, i64 208, !15, i64 216, !15, i64 224, !15, i64 232, !15, i64 240, !15, i64 248, !15, i64 256, !15, i64 264, !15, i64 272, !15, i64 280, !15, i64 288, !15, i64 296, !15, i64 304, !15, i64 312, !15, i64 320, !15, i64 328, !15, i64 336, !14, i64 344, !14, i64 348, !14, i64 352, !14, i64 356, !14, i64 360, !14, i64 364, !14, i64 368, !14, i64 372, !14, i64 376, !16, i64 380, !16, i64 384, !4, i64 392, !4, i64 400, !4, i64 408, !4, i64 416, !4, i64 424, !4, i64 432, !15, i64 440, !15, i64 448, !15, i64 456, !15, i64 464, !15, i64 472, !15, i64 480, !15, i64 488, !15, i64 496, !15, i64 504, !15, i64 512, !15, i64 520, !14, i64 528, !6, i64 536, !14, i64 592, !5, i64 600, !5, i64 608, !15, i64 616, !15, i64 624, !14, i64 632, !6, i64 636, !17, i64 640, !22, i64 656, !15, i64 664, !22, i64 672, !23, i64 680, !23, i64 712, !23, i64 744, !22, i64 776, !26, i64 784, !31, i64 808, !32, i64 816, !14, i64 840, !22, i64 844, !22, i64 845, !22, i64 846, !4, i64 848}
!10 = !{!"p1 _ZTS6pj_ctx", !5, i64 0}
!11 = !{!"p1 omnipotent char", !5, i64 0}
!12 = !{!"p1 _ZTS8ARG_list", !5, i64 0}
!13 = !{!"p1 _ZTS13geod_geodesic", !5, i64 0}
!14 = !{!"int", !6, i64 0}
!15 = !{!"double", !6, i64 0}
!16 = !{!"_ZTS11pj_io_units", !6, i64 0}
!17 = !{!"_ZTSSt10shared_ptrIN5osgeo4proj4util10BaseObjectEE", !18, i64 0}
!18 = !{!"_ZTSSt12__shared_ptrIN5osgeo4proj4util10BaseObjectELN9__gnu_cxx12_Lock_policyE2EE", !19, i64 0, !20, i64 8}
!19 = !{!"p1 _ZTSN5osgeo4proj4util10BaseObjectE", !5, i64 0}
!20 = !{!"_ZTSSt14__shared_countILN9__gnu_cxx12_Lock_policyE2EE", !21, i64 0}
!21 = !{!"p1 _ZTSSt16_Sp_counted_baseILN9__gnu_cxx12_Lock_policyE2EE", !5, i64 0}
!22 = !{!"bool", !6, i64 0}
!23 = !{!"_ZTSNSt7__cxx1112basic_stringIcSt11char_traitsIcESaIcEEE", !24, i64 0, !25, i64 8, !6, i64 16}
!24 = !{!"_ZTSNSt7__cxx1112basic_stringIcSt11char_traitsIcESaIcEE12_Alloc_hiderE", !11, i64 0}
!25 = !{!"long", !6, i64 0}
!26 = !{!"_ZTSSt6vectorIN5osgeo4proj9operation15GridDescriptionESaIS3_EE", !27, i64 0}
!27 = !{!"_ZTSSt12_Vector_baseIN5osgeo4proj9operation15GridDescriptionESaIS3_EE", !28, i64 0}
!28 = !{!"_ZTSNSt12_Vector_baseIN5osgeo4proj9operation15GridDescriptionESaIS3_EE12_Vector_implE", !29, i64 0}
!29 = !{!"_ZTSNSt12_Vector_baseIN5osgeo4proj9operation15GridDescriptionESaIS3_EE17_Vector_impl_dataE", !30, i64 0, !30, i64 8, !30, i64 16}
!30 = !{!"p1 _ZTSN5osgeo4proj9operation15GridDescriptionE", !5, i64 0}
!31 = !{!"_ZTS7PJ_TYPE", !6, i64 0}
!32 = !{!"_ZTSSt6vectorI16PJCoordOperationSaIS0_EE", !33, i64 0}
!33 = !{!"_ZTSSt12_Vector_baseI16PJCoordOperationSaIS0_EE", !34, i64 0}
!34 = !{!"_ZTSNSt12_Vector_baseI16PJCoordOperationSaIS0_EE12_Vector_implE", !35, i64 0}
!35 = !{!"_ZTSNSt12_Vector_baseI16PJCoordOperationSaIS0_EE17_Vector_impl_dataE", !36, i64 0, !36, i64 8, !36, i64 16}
!36 = !{!"p1 _ZTS16PJCoordOperation", !5, i64 0}
!37 = !{!9, !11, i64 16}
!38 = !{!9, !14, i64 360}
!39 = !{!9, !16, i64 380}
!40 = !{!9, !16, i64 384}
!41 = !{!9, !15, i64 216}
!42 = !{!9, !5, i64 112}
!43 = !{!9, !5, i64 104}
!44 = !{!45, !15, i64 8}
!45 = !{!"_ZTS5PJ_XY", !15, i64 0, !15, i64 8}
!46 = !{!15, !15, i64 0}
!47 = !{!14, !14, i64 0}
!48 = !{!49, !15, i64 8}
!49 = !{!"_ZTS5PJ_LP", !15, i64 0, !15, i64 8}
!50 = distinct !{!50, !51}
!51 = !{!"llvm.loop.mustprogress"}
!52 = !{!45, !15, i64 0}
!53 = !{!49, !15, i64 0}
