; ModuleID = 'bench/proj/original/nell_h.ll'
source_filename = "bench/proj/original/nell_h.ll"
target datalayout = "e-m:e-p270:32:32-p271:32:32-p272:64:64-i64:64-i128:128-f80:128-n8:16:32:64-S128"
target triple = "x86_64-pc-linux-gnu"

@_ZL10des_nell_h = internal constant [23 x i8] c"Nell-Hammer\0A\09PCyl, Sph\00", align 16
@pj_s_nell_h = hidden local_unnamed_addr constant ptr @_ZL10des_nell_h, align 8
@.str = private unnamed_addr constant [7 x i8] c"nell_h\00", align 1

; Function Attrs: mustprogress uwtable
define hidden noundef ptr @pj_nell_h(ptr noundef writeonly %0) local_unnamed_addr #0 {
  %.not = icmp eq ptr %0, null
  br i1 %.not, label %6, label %2

2:                                                ; preds = %1
  %3 = getelementptr inbounds nuw i8, ptr %0, i64 216
  store double 0.000000e+00, ptr %3, align 8, !tbaa !3
  %4 = getelementptr inbounds nuw i8, ptr %0, i64 112
  store ptr @_ZL16nell_h_s_inverse5PJ_XYP8PJconsts, ptr %4, align 8, !tbaa !36
  %5 = getelementptr inbounds nuw i8, ptr %0, i64 104
  store ptr @_ZL16nell_h_s_forward5PJ_LPP8PJconsts, ptr %5, align 8, !tbaa !37
  br label %15

6:                                                ; preds = %1
  %7 = tail call noundef ptr @_Z6pj_newv()
  %8 = icmp eq ptr %7, null
  br i1 %8, label %15, label %9

9:                                                ; preds = %6
  %10 = getelementptr inbounds nuw i8, ptr %7, i64 8
  store ptr @.str, ptr %10, align 8, !tbaa !38
  %11 = getelementptr inbounds nuw i8, ptr %7, i64 16
  store ptr @_ZL10des_nell_h, ptr %11, align 8, !tbaa !39
  %12 = getelementptr inbounds nuw i8, ptr %7, i64 360
  store i32 1, ptr %12, align 8, !tbaa !40
  %13 = getelementptr inbounds nuw i8, ptr %7, i64 380
  store i32 4, ptr %13, align 4, !tbaa !41
  %14 = getelementptr inbounds nuw i8, ptr %7, i64 384
  store i32 1, ptr %14, align 8, !tbaa !42
  br label %15

15:                                               ; preds = %6, %9, %2
  %.0 = phi ptr [ %0, %2 ], [ %7, %9 ], [ null, %6 ]
  ret ptr %.0
}

; Function Attrs: mustprogress nofree norecurse nosync nounwind willreturn memory(argmem: write) uwtable
define hidden noundef ptr @_Z35pj_projection_specific_setup_nell_hP8PJconsts(ptr noundef returned writeonly initializes((104, 120), (216, 224)) %0) local_unnamed_addr #1 {
  %2 = getelementptr inbounds nuw i8, ptr %0, i64 216
  store double 0.000000e+00, ptr %2, align 8, !tbaa !3
  %3 = getelementptr inbounds nuw i8, ptr %0, i64 112
  store ptr @_ZL16nell_h_s_inverse5PJ_XYP8PJconsts, ptr %3, align 8, !tbaa !36
  %4 = getelementptr inbounds nuw i8, ptr %0, i64 104
  store ptr @_ZL16nell_h_s_forward5PJ_LPP8PJconsts, ptr %4, align 8, !tbaa !37
  ret ptr %0
}

declare noundef ptr @_Z6pj_newv() local_unnamed_addr #2

; Function Attrs: mustprogress nofree nounwind memory(write) uwtable
define internal { double, double } @_ZL16nell_h_s_inverse5PJ_XYP8PJconsts(double %0, double %1, ptr readnone captures(none) %2) #3 {
  %4 = fmul double %1, 5.000000e-01
  br label %7

5:                                                ; preds = %7
  %6 = add nsw i32 %.01517, -1
  %.not = icmp eq i32 %6, 0
  br i1 %.not, label %20, label %7, !llvm.loop !43

7:                                                ; preds = %3, %5
  %.sroa.4.018 = phi double [ 0.000000e+00, %3 ], [ %17, %5 ]
  %.01517 = phi i32 [ 9, %3 ], [ %6, %5 ]
  %8 = fmul double %.sroa.4.018, 5.000000e-01
  %9 = tail call double @cos(double noundef %8) #7, !tbaa !45
  %10 = tail call double @tan(double noundef %8) #7, !tbaa !45
  %11 = fsub double %.sroa.4.018, %10
  %12 = fsub double %11, %4
  %13 = fmul double %9, %9
  %14 = fdiv double 5.000000e-01, %13
  %15 = fsub double 1.000000e+00, %14
  %16 = fdiv double %12, %15
  %17 = fsub double %.sroa.4.018, %16
  %18 = tail call double @llvm.fabs.f64(double %16)
  %19 = fcmp olt double %18, 0x3E7AD7F29ABCAF48
  br i1 %19, label %24, label %5

20:                                               ; preds = %5
  %21 = fcmp olt double %4, 0.000000e+00
  %22 = select i1 %21, double 0xBFF921FB54442D18, double 0x3FF921FB54442D18
  %23 = fmul double %0, 2.000000e+00
  br label %29

24:                                               ; preds = %7
  %25 = fmul double %0, 2.000000e+00
  %26 = tail call double @cos(double noundef %17) #7, !tbaa !45
  %27 = fadd double %26, 1.000000e+00
  %28 = fdiv double %25, %27
  br label %29

29:                                               ; preds = %24, %20
  %.sroa.4.2 = phi double [ %17, %24 ], [ %22, %20 ]
  %.sroa.010.0 = phi double [ %28, %24 ], [ %23, %20 ]
  %.fca.0.insert = insertvalue { double, double } poison, double %.sroa.010.0, 0
  %.fca.1.insert = insertvalue { double, double } %.fca.0.insert, double %.sroa.4.2, 1
  ret { double, double } %.fca.1.insert
}

; Function Attrs: mustprogress nofree nounwind willreturn memory(write) uwtable
define internal { double, double } @_ZL16nell_h_s_forward5PJ_LPP8PJconsts(double %0, double %1, ptr readnone captures(none) %2) #4 {
  %4 = fmul double %0, 5.000000e-01
  %5 = tail call double @cos(double noundef %1) #7, !tbaa !45
  %6 = fadd double %5, 1.000000e+00
  %7 = fmul double %4, %6
  %8 = fmul double %1, 5.000000e-01
  %9 = tail call double @tan(double noundef %8) #7, !tbaa !45
  %10 = fsub double %1, %9
  %11 = fmul double %10, 2.000000e+00
  %.fca.0.insert = insertvalue { double, double } poison, double %7, 0
  %.fca.1.insert = insertvalue { double, double } %.fca.0.insert, double %11, 1
  ret { double, double } %.fca.1.insert
}

; Function Attrs: mustprogress nofree nounwind willreturn memory(write)
declare double @cos(double noundef) local_unnamed_addr #5

; Function Attrs: mustprogress nofree nounwind willreturn memory(write)
declare double @tan(double noundef) local_unnamed_addr #5

; Function Attrs: mustprogress nocallback nofree nosync nounwind speculatable willreturn memory(none)
declare double @llvm.fabs.f64(double) #6


!llvm.module.flags = !{!0, !1, !2}

!0 = !{i32 1, !"wchar_size", i32 4}
!1 = !{i32 8, !"PIC Level", i32 2}
!2 = !{i32 7, !"uwtable", i32 2}
!3 = !{!4, !14, i64 216}
!4 = !{!"_ZTS8PJconsts", !5, i64 0, !9, i64 8, !9, i64 16, !10, i64 24, !9, i64 32, !11, i64 40, !9, i64 48, !9, i64 56, !9, i64 64, !9, i64 72, !12, i64 80, !6, i64 88, !13, i64 96, !6, i64 104, !6, i64 112, !6, i64 120, !6, i64 128, !6, i64 136, !6, i64 144, !6, i64 152, !6, i64 160, !14, i64 168, !14, i64 176, !14, i64 184, !14, i64 192, !14, i64 200, !14, i64 208, !14, i64 216, !14, i64 224, !14, i64 232, !14, i64 240, !14, i64 248, !14, i64 256, !14, i64 264, !14, i64 272, !14, i64 280, !14, i64 288, !14, i64 296, !14, i64 304, !14, i64 312, !14, i64 320, !14, i64 328, !14, i64 336, !13, i64 344, !13, i64 348, !13, i64 352, !13, i64 356, !13, i64 360, !13, i64 364, !13, i64 368, !13, i64 372, !13, i64 376, !15, i64 380, !15, i64 384, !11, i64 392, !11, i64 400, !11, i64 408, !11, i64 416, !11, i64 424, !11, i64 432, !14, i64 440, !14, i64 448, !14, i64 456, !14, i64 464, !14, i64 472, !14, i64 480, !14, i64 488, !14, i64 496, !14, i64 504, !14, i64 512, !14, i64 520, !13, i64 528, !7, i64 536, !13, i64 592, !6, i64 600, !6, i64 608, !14, i64 616, !14, i64 624, !13, i64 632, !7, i64 636, !16, i64 640, !21, i64 656, !14, i64 664, !21, i64 672, !22, i64 680, !22, i64 712, !22, i64 744, !21, i64 776, !25, i64 784, !30, i64 808, !31, i64 816, !13, i64 840, !21, i64 844, !21, i64 845, !21, i64 846, !11, i64 848}
!5 = !{!"p1 _ZTS6pj_ctx", !6, i64 0}
!6 = !{!"any pointer", !7, i64 0}
!7 = !{!"omnipotent char", !8, i64 0}
!8 = !{!"Simple C++ TBAA"}
!9 = !{!"p1 omnipotent char", !6, i64 0}
!10 = !{!"p1 _ZTS8ARG_list", !6, i64 0}
!11 = !{!"p1 _ZTS8PJconsts", !6, i64 0}
!12 = !{!"p1 _ZTS13geod_geodesic", !6, i64 0}
!13 = !{!"int", !7, i64 0}
!14 = !{!"double", !7, i64 0}
!15 = !{!"_ZTS11pj_io_units", !7, i64 0}
!16 = !{!"_ZTSSt10shared_ptrIN5osgeo4proj4util10BaseObjectEE", !17, i64 0}
!17 = !{!"_ZTSSt12__shared_ptrIN5osgeo4proj4util10BaseObjectELN9__gnu_cxx12_Lock_policyE2EE", !18, i64 0, !19, i64 8}
!18 = !{!"p1 _ZTSN5osgeo4proj4util10BaseObjectE", !6, i64 0}
!19 = !{!"_ZTSSt14__shared_countILN9__gnu_cxx12_Lock_policyE2EE", !20, i64 0}
!20 = !{!"p1 _ZTSSt16_Sp_counted_baseILN9__gnu_cxx12_Lock_policyE2EE", !6, i64 0}
!21 = !{!"bool", !7, i64 0}
!22 = !{!"_ZTSNSt7__cxx1112basic_stringIcSt11char_traitsIcESaIcEEE", !23, i64 0, !24, i64 8, !7, i64 16}
!23 = !{!"_ZTSNSt7__cxx1112basic_stringIcSt11char_traitsIcESaIcEE12_Alloc_hiderE", !9, i64 0}
!24 = !{!"long", !7, i64 0}
!25 = !{!"_ZTSSt6vectorIN5osgeo4proj9operation15GridDescriptionESaIS3_EE", !26, i64 0}
!26 = !{!"_ZTSSt12_Vector_baseIN5osgeo4proj9operation15GridDescriptionESaIS3_EE", !27, i64 0}
!27 = !{!"_ZTSNSt12_Vector_baseIN5osgeo4proj9operation15GridDescriptionESaIS3_EE12_Vector_implE", !28, i64 0}
!28 = !{!"_ZTSNSt12_Vector_baseIN5osgeo4proj9operation15GridDescriptionESaIS3_EE17_Vector_impl_dataE", !29, i64 0, !29, i64 8, !29, i64 16}
!29 = !{!"p1 _ZTSN5osgeo4proj9operation15GridDescriptionE", !6, i64 0}
!30 = !{!"_ZTS7PJ_TYPE", !7, i64 0}
!31 = !{!"_ZTSSt6vectorI16PJCoordOperationSaIS0_EE", !32, i64 0}
!32 = !{!"_ZTSSt12_Vector_baseI16PJCoordOperationSaIS0_EE", !33, i64 0}
!33 = !{!"_ZTSNSt12_Vector_baseI16PJCoordOperationSaIS0_EE12_Vector_implE", !34, i64 0}
!34 = !{!"_ZTSNSt12_Vector_baseI16PJCoordOperationSaIS0_EE17_Vector_impl_dataE", !35, i64 0, !35, i64 8, !35, i64 16}
!35 = !{!"p1 _ZTS16PJCoordOperation", !6, i64 0}
!36 = !{!4, !6, i64 112}
!37 = !{!4, !6, i64 104}
!38 = !{!4, !9, i64 8}
!39 = !{!4, !9, i64 16}
!40 = !{!4, !13, i64 360}
!41 = !{!4, !15, i64 380}
!42 = !{!4, !15, i64 384}
!43 = distinct !{!43, !44}
!44 = !{!"llvm.loop.mustprogress"}
!45 = !{!13, !13, i64 0}
